target datalayout = "e-m:e-p270:32:32-p271:32:32-p272:64:64-i64:64-i128:128-f80:128-n8:16:32:64-S128"
target triple = "x86_64-pc-linux-gnu"

%struct.plic_context_t = type <{ ptr, i8, i8, [2 x i8], [32 x i32], [32 x i32], [1024 x i8], [32 x i32], [4 x i8] }>
%class.plic_t = type <{ %class.abstract_device_t, %class.abstract_interrupt_controller_t, %"class.std::vector", i32, i32, i32, [1024 x i8], [32 x i32], [4 x i8] }>
%class.abstract_device_t = type { ptr }
%class.abstract_interrupt_controller_t = type { ptr }
%"class.std::vector" = type { %"struct.std::_Vector_base" }
%"struct.std::_Vector_base" = type { %"struct.std::_Vector_base<plic_context_t, std::allocator<plic_context_t>>::_Vector_impl" }
%"struct.std::_Vector_base<plic_context_t, std::allocator<plic_context_t>>::_Vector_impl" = type { %"struct.std::_Vector_base<plic_context_t, std::allocator<plic_context_t>>::_Vector_impl_data" }
%"struct.std::_Vector_base<plic_context_t, std::allocator<plic_context_t>>::_Vector_impl_data" = type { ptr, ptr, ptr }

; Function Attrs: mustprogress nounwind uwtable
define linkonce_odr noundef nonnull align 8 dereferenceable(1420) ptr @_ZNSt6vectorI14plic_context_tSaIS0_EEixEm(ptr noundef nonnull align 8 dereferenceable(24) %0, i64 noundef %1) #6 comdat align 2 {
  %3 = alloca ptr, align 8
  %4 = alloca i64, align 8
  store ptr %0, ptr %3, align 8, !tbaa !39
  store i64 %1, ptr %4, align 8, !tbaa !61
  %5 = load ptr, ptr %3, align 8
  %6 = getelementptr inbounds nuw %"struct.std::_Vector_base", ptr %5, i32 0, i32 0
  %7 = getelementptr inbounds nuw %"struct.std::_Vector_base<plic_context_t, std::allocator<plic_context_t>>::_Vector_impl_data", ptr %6, i32 0, i32 0
  %8 = load ptr, ptr %7, align 8, !tbaa !56
  %9 = load i64, ptr %4, align 8, !tbaa !61
  %10 = getelementptr inbounds nuw %struct.plic_context_t, ptr %8, i64 %9
  ret ptr %10
}

; Function Attrs: mustprogress nounwind uwtable
define linkonce_odr noundef i64 @_ZNKSt6vectorI14plic_context_tSaIS0_EE4sizeEv(ptr noundef nonnull align 8 dereferenceable(24) %0) #6 comdat align 2 {
  %2 = alloca ptr, align 8
  store ptr %0, ptr %2, align 8, !tbaa !39
  %3 = load ptr, ptr %2, align 8
  %4 = getelementptr inbounds nuw %"struct.std::_Vector_base", ptr %3, i32 0, i32 0
  %5 = getelementptr inbounds nuw %"struct.std::_Vector_base<plic_context_t, std::allocator<plic_context_t>>::_Vector_impl_data", ptr %4, i32 0, i32 1
  %6 = load ptr, ptr %5, align 8, !tbaa !57
  %7 = getelementptr inbounds nuw %"struct.std::_Vector_base", ptr %3, i32 0, i32 0
  %8 = getelementptr inbounds nuw %"struct.std::_Vector_base<plic_context_t, std::allocator<plic_context_t>>::_Vector_impl_data", ptr %7, i32 0, i32 0
  %9 = load ptr, ptr %8, align 8, !tbaa !56
  %10 = ptrtoint ptr %6 to i64
  %11 = ptrtoint ptr %9 to i64
  %12 = sub i64 %10, %11
  %13 = sdiv exact i64 %12, 1424
  ret i64 %13
}

; Function Attrs: mustprogress nounwind uwtable
define noundef zeroext i1 @_ZN6plic_t14priority_writeEmj(ptr noundef nonnull align 8 dereferenceable(1204) %0, i64 noundef %1, i32 noundef %2) #6 align 2 {
  %4 = alloca ptr, align 8
  %5 = alloca i64, align 8
  %6 = alloca i32, align 4
  %7 = alloca i32, align 4
  store ptr %0, ptr %4, align 8, !tbaa !3
  store i64 %1, ptr %5, align 8, !tbaa !61
  store i32 %2, ptr %6, align 4, !tbaa !10
  %8 = load ptr, ptr %4, align 8
  call void @llvm.lifetime.start.p0(i64 4, ptr %7) #3
  %9 = load i64, ptr %5, align 8, !tbaa !61
  %10 = lshr i64 %9, 2
  %11 = trunc i64 %10 to i32
  store i32 %11, ptr %7, align 4, !tbaa !10
  %12 = load i32, ptr %7, align 4, !tbaa !10
  %13 = icmp ugt i32 %12, 0
  br i1 %13, label %14, label %28

14:                                               ; preds = %3
  %15 = load i32, ptr %7, align 4, !tbaa !10
  %16 = getelementptr inbounds nuw %class.plic_t, ptr %8, i32 0, i32 3
  %17 = load i32, ptr %16, align 8, !tbaa !14
  %18 = icmp ult i32 %15, %17
  br i1 %18, label %19, label %28

19:                                               ; preds = %14
  %20 = load i32, ptr %6, align 4, !tbaa !10
  %21 = and i32 %20, 15
  store i32 %21, ptr %6, align 4, !tbaa !10
  %22 = load i32, ptr %6, align 4, !tbaa !10
  %23 = trunc i32 %22 to i8
  %24 = getelementptr inbounds nuw %class.plic_t, ptr %8, i32 0, i32 6
  %25 = load i32, ptr %7, align 4, !tbaa !10
  %26 = zext i32 %25 to i64
  %27 = getelementptr inbounds nuw [1024 x i8], ptr %24, i64 0, i64 %26
  store i8 %23, ptr %27, align 1, !tbaa !55
  br label %28

28:                                               ; preds = %19, %14, %3
  call void @llvm.lifetime.end.p0(i64 4, ptr %7) #3
  ret i1 true
}

; Function Attrs: mustprogress nounwind uwtable
define linkonce_odr void @_Z23write_little_endian_regIjEvPT_mmPKh(ptr noundef %0, i64 noundef %1, i64 noundef %2, ptr noundef %3) #6 comdat {
  %5 = alloca ptr, align 8
  %6 = alloca i64, align 8
  %7 = alloca i64, align 8
  %8 = alloca ptr, align 8
  %9 = alloca i64, align 8
  %10 = alloca i32, align 4
  store ptr %0, ptr %5, align 8, !tbaa !65
  store i64 %1, ptr %6, align 8, !tbaa !61
  store i64 %2, ptr %7, align 8, !tbaa !61
  store ptr %3, ptr %8, align 8, !tbaa !74
  call void @llvm.lifetime.start.p0(i64 8, ptr %9) #3
  store i64 0, ptr %9, align 8, !tbaa !61
  br label %11

11:                                               ; preds = %38, %4
  %12 = load i64, ptr %9, align 8, !tbaa !61
  %13 = load i64, ptr %7, align 8, !tbaa !61
  %14 = icmp ult i64 %12, %13
  br i1 %14, label %16, label %15

15:                                               ; preds = %11
  call void @llvm.lifetime.end.p0(i64 8, ptr %9) #3
  br label %41

16:                                               ; preds = %11
  call void @llvm.lifetime.start.p0(i64 4, ptr %10) #3
  %17 = load i64, ptr %6, align 8, !tbaa !61
  %18 = load i64, ptr %9, align 8, !tbaa !61
  %19 = add i64 %17, %18
  %20 = urem i64 %19, 4
  %21 = mul i64 8, %20
  %22 = trunc i64 %21 to i32
  store i32 %22, ptr %10, align 4, !tbaa !10
  %23 = load ptr, ptr %5, align 8, !tbaa !65
  %24 = load i32, ptr %23, align 4, !tbaa !10
  %25 = load i32, ptr %10, align 4, !tbaa !10
  %26 = shl i32 255, %25
  %27 = xor i32 %26, -1
  %28 = and i32 %24, %27
  %29 = load ptr, ptr %8, align 8, !tbaa !74
  %30 = load i64, ptr %9, align 8, !tbaa !61
  %31 = getelementptr inbounds nuw i8, ptr %29, i64 %30
  %32 = load i8, ptr %31, align 1, !tbaa !55
  %33 = zext i8 %32 to i32
  %34 = load i32, ptr %10, align 4, !tbaa !10
  %35 = shl i32 %33, %34
  %36 = or i32 %28, %35
  %37 = load ptr, ptr %5, align 8, !tbaa !65
  store i32 %36, ptr %37, align 4, !tbaa !10
  call void @llvm.lifetime.end.p0(i64 4, ptr %10) #3
  br label %38

38:                                               ; preds = %16
  %39 = load i64, ptr %9, align 8, !tbaa !61
  %40 = add i64 %39, 1
  store i64 %40, ptr %9, align 8, !tbaa !61
  br label %11, !llvm.loop !77

41:                                               ; preds = %15
  ret void
}

; Function Attrs: mustprogress uwtable
define noundef zeroext i1 @_ZN6plic_t5storeEmmPKh(ptr noundef nonnull align 8 dereferenceable(1204) %0, i64 noundef %1, i64 noundef %2, ptr noundef %3) unnamed_addr #4 align 2 {
  %5 = alloca i1, align 1
  %6 = alloca ptr, align 8
  %7 = alloca i64, align 8
  %8 = alloca i64, align 8
  %9 = alloca ptr, align 8
  %10 = alloca i8, align 1
  %11 = alloca i32, align 4
  %12 = alloca i32, align 4
  %13 = alloca i32, align 4
  %14 = alloca i32, align 4
  store ptr %0, ptr %6, align 8, !tbaa !3
  store i64 %1, ptr %7, align 8, !tbaa !61
  store i64 %2, ptr %8, align 8, !tbaa !61
  store ptr %3, ptr %9, align 8, !tbaa !74
  %15 = load ptr, ptr %6, align 8
  call void @llvm.lifetime.start.p0(i64 1, ptr %10) #3
  store i8 0, ptr %10, align 1, !tbaa !47
  call void @llvm.lifetime.start.p0(i64 4, ptr %11) #3
  store i32 0, ptr %11, align 4, !tbaa !10
  %16 = load i64, ptr %8, align 8, !tbaa !61
  switch i64 %16, label %35 [
    i64 4, label %36
    i64 8, label %17
  ]

17:                                               ; preds = %4
  %18 = load i64, ptr %7, align 8, !tbaa !61
  %19 = load ptr, ptr %9, align 8, !tbaa !74
  %20 = load ptr, ptr %15, align 8, !tbaa !12
  %21 = getelementptr inbounds ptr, ptr %20, i64 1
  %22 = load ptr, ptr %21, align 8
  %23 = call noundef zeroext i1 %22(ptr noundef nonnull align 8 dereferenceable(1204) %15, i64 noundef %18, i64 noundef 4, ptr noundef %19)
  br i1 %23, label %24, label %33

24:                                               ; preds = %17
  %25 = load i64, ptr %7, align 8, !tbaa !61
  %26 = add i64 %25, 4
  %27 = load ptr, ptr %9, align 8, !tbaa !74
  %28 = getelementptr inbounds i8, ptr %27, i64 4
  %29 = load ptr, ptr %15, align 8, !tbaa !12
  %30 = getelementptr inbounds ptr, ptr %29, i64 1
  %31 = load ptr, ptr %30, align 8
  %32 = call noundef zeroext i1 %31(ptr noundef nonnull align 8 dereferenceable(1204) %15, i64 noundef %26, i64 noundef 4, ptr noundef %28)
  br label %33

33:                                               ; preds = %24, %17
  %34 = phi i1 [ false, %17 ], [ %32, %24 ]
  store i1 %34, ptr %5, align 1
  store i32 1, ptr %12, align 4
  br label %119

35:                                               ; preds = %4
  store i1 false, ptr %5, align 1
  store i32 1, ptr %12, align 4
  br label %119

36:                                               ; preds = %4
  %37 = load i64, ptr %7, align 8, !tbaa !61
  %38 = load i64, ptr %8, align 8, !tbaa !61
  %39 = load ptr, ptr %9, align 8, !tbaa !74
  call void @_Z23write_little_endian_regIjEvPT_mmPKh(ptr noundef %11, i64 noundef %37, i64 noundef %38, ptr noundef %39)
  %40 = load i64, ptr %7, align 8, !tbaa !61
  %41 = icmp ule i64 0, %40
  br i1 %41, label %42, label %50

42:                                               ; preds = %36
  %43 = load i64, ptr %7, align 8, !tbaa !61
  %44 = icmp ult i64 %43, 8192
  br i1 %44, label %45, label %50

45:                                               ; preds = %42
  %46 = load i64, ptr %7, align 8, !tbaa !61
  %47 = load i32, ptr %11, align 4, !tbaa !10
  %48 = call noundef zeroext i1 @_ZN6plic_t14priority_writeEmj(ptr noundef nonnull align 8 dereferenceable(1204) %15, i64 noundef %46, i32 noundef %47)
  %49 = zext i1 %48 to i8
  store i8 %49, ptr %10, align 1, !tbaa !47
  br label %116

50:                                               ; preds = %42, %36
  %51 = load i64, ptr %7, align 8, !tbaa !61
  %52 = icmp ule i64 8192, %51
  br i1 %52, label %53, label %82

53:                                               ; preds = %50
  %54 = load i64, ptr %7, align 8, !tbaa !61
  %55 = icmp ult i64 %54, 2097152
  br i1 %55, label %56, label %82

56:                                               ; preds = %53
  call void @llvm.lifetime.start.p0(i64 4, ptr %13) #3
  %57 = load i64, ptr %7, align 8, !tbaa !61
  %58 = sub i64 %57, 8192
  %59 = udiv i64 %58, 128
  %60 = trunc i64 %59 to i32
  store i32 %60, ptr %13, align 4, !tbaa !10
  %61 = load i32, ptr %13, align 4, !tbaa !10
  %62 = mul i32 %61, 128
  %63 = add i32 %62, 8192
  %64 = zext i32 %63 to i64
  %65 = load i64, ptr %7, align 8, !tbaa !61
  %66 = sub i64 %65, %64
  store i64 %66, ptr %7, align 8, !tbaa !61
  %67 = load i32, ptr %13, align 4, !tbaa !10
  %68 = zext i32 %67 to i64
  %69 = getelementptr inbounds nuw %class.plic_t, ptr %15, i32 0, i32 2
  %70 = call noundef i64 @_ZNKSt6vectorI14plic_context_tSaIS0_EE4sizeEv(ptr noundef nonnull align 8 dereferenceable(24) %69) #3
  %71 = icmp ult i64 %68, %70
  br i1 %71, label %72, label %81

72:                                               ; preds = %56
  %73 = getelementptr inbounds nuw %class.plic_t, ptr %15, i32 0, i32 2
  %74 = load i32, ptr %13, align 4, !tbaa !10
  %75 = zext i32 %74 to i64
  %76 = call noundef nonnull align 8 dereferenceable(1420) ptr @_ZNSt6vectorI14plic_context_tSaIS0_EEixEm(ptr noundef nonnull align 8 dereferenceable(24) %73, i64 noundef %75) #3
  %77 = load i64, ptr %7, align 8, !tbaa !61
  %78 = load i32, ptr %11, align 4, !tbaa !10
  %79 = call noundef zeroext i1 @_ZN6plic_t20context_enable_writeEP14plic_context_tmj(ptr noundef nonnull align 8 dereferenceable(1204) %15, ptr noundef %76, i64 noundef %77, i32 noundef %78)
  %80 = zext i1 %79 to i8
  store i8 %80, ptr %10, align 1, !tbaa !47
  br label %81

81:                                               ; preds = %72, %56
  call void @llvm.lifetime.end.p0(i64 4, ptr %13) #3
  br label %115

82:                                               ; preds = %53, %50
  %83 = load i64, ptr %7, align 8, !tbaa !61
  %84 = icmp ule i64 2097152, %83
  br i1 %84, label %85, label %114

85:                                               ; preds = %82
  %86 = load i64, ptr %7, align 8, !tbaa !61
  %87 = icmp ult i64 %86, 16777216
  br i1 %87, label %88, label %114

88:                                               ; preds = %85
  call void @llvm.lifetime.start.p0(i64 4, ptr %14) #3
  %89 = load i64, ptr %7, align 8, !tbaa !61
  %90 = sub i64 %89, 2097152
  %91 = udiv i64 %90, 4096
  %92 = trunc i64 %91 to i32
  store i32 %92, ptr %14, align 4, !tbaa !10
  %93 = load i32, ptr %14, align 4, !tbaa !10
  %94 = mul i32 %93, 4096
  %95 = add i32 %94, 2097152
  %96 = zext i32 %95 to i64
  %97 = load i64, ptr %7, align 8, !tbaa !61
  %98 = sub i64 %97, %96
  store i64 %98, ptr %7, align 8, !tbaa !61
  %99 = load i32, ptr %14, align 4, !tbaa !10
  %100 = zext i32 %99 to i64
  %101 = getelementptr inbounds nuw %class.plic_t, ptr %15, i32 0, i32 2
  %102 = call noundef i64 @_ZNKSt6vectorI14plic_context_tSaIS0_EE4sizeEv(ptr noundef nonnull align 8 dereferenceable(24) %101) #3
  %103 = icmp ult i64 %100, %102
  br i1 %103, label %104, label %113

104:                                              ; preds = %88
  %105 = getelementptr inbounds nuw %class.plic_t, ptr %15, i32 0, i32 2
  %106 = load i32, ptr %14, align 4, !tbaa !10
  %107 = zext i32 %106 to i64
  %108 = call noundef nonnull align 8 dereferenceable(1420) ptr @_ZNSt6vectorI14plic_context_tSaIS0_EEixEm(ptr noundef nonnull align 8 dereferenceable(24) %105, i64 noundef %107) #3
  %109 = load i64, ptr %7, align 8, !tbaa !61
  %110 = load i32, ptr %11, align 4, !tbaa !10
  %111 = call noundef zeroext i1 @_ZN6plic_t13context_writeEP14plic_context_tmj(ptr noundef nonnull align 8 dereferenceable(1204) %15, ptr noundef %108, i64 noundef %109, i32 noundef %110)
  %112 = zext i1 %111 to i8
  store i8 %112, ptr %10, align 1, !tbaa !47
  br label %113

113:                                              ; preds = %104, %88
  call void @llvm.lifetime.end.p0(i64 4, ptr %14) #3
  br label %114

114:                                              ; preds = %113, %85, %82
  br label %115

115:                                              ; preds = %114, %81
  br label %116

116:                                              ; preds = %115, %45
  %117 = load i8, ptr %10, align 1, !tbaa !47, !range !51, !noundef !52
  %118 = trunc i8 %117 to i1
  store i1 %118, ptr %5, align 1
  store i32 1, ptr %12, align 4
  br label %119

119:                                              ; preds = %116, %35, %33
  call void @llvm.lifetime.end.p0(i64 4, ptr %11) #3
  call void @llvm.lifetime.end.p0(i64 1, ptr %10) #3
  %120 = load i1, ptr %5, align 1
  ret i1 %120
}