; Function Attrs: mustprogress uwtable
define noundef zeroext i1 @_ZN6plic_t5storeEmmPKh(ptr noundef nonnull align 8 dereferenceable(1204) %0, i64 noundef %1, i64 noundef %2, ptr noundef %3) unnamed_addr #3 align 2 {
  switch i64 %2, label %_ZN6plic_t14priority_writeEmj.exit [
    i64 4, label %.preheader
    i64 8, label %5
  ]

5:                                                ; preds = %4
  %6 = load ptr, ptr %0, align 8, !tbaa !3
  %7 = getelementptr inbounds nuw i8, ptr %6, i64 8
  %8 = load ptr, ptr %7, align 8
  %9 = tail call noundef zeroext i1 %8(ptr noundef nonnull align 8 dereferenceable(1204) %0, i64 noundef %1, i64 noundef 4, ptr noundef %3)
  br i1 %9, label %10, label %_ZN6plic_t14priority_writeEmj.exit

10:                                               ; preds = %5
  %11 = add i64 %1, 4
  %12 = getelementptr inbounds nuw i8, ptr %3, i64 4
  %13 = load ptr, ptr %0, align 8, !tbaa !3
  %14 = getelementptr inbounds nuw i8, ptr %13, i64 8
  %15 = load ptr, ptr %14, align 8
  %16 = tail call noundef zeroext i1 %15(ptr noundef nonnull align 8 dereferenceable(1204) %0, i64 noundef %11, i64 noundef 4, ptr noundef nonnull %12)
  br label %_ZN6plic_t14priority_writeEmj.exit

.preheader:                                       ; preds = %4, %.preheader
  %17 = phi i32 [ %28, %.preheader ], [ 0, %4 ]
  %.010.i = phi i64 [ %29, %.preheader ], [ 0, %4 ]
  %18 = add i64 %.010.i, %1
  %.tr.i = trunc i64 %18 to i32
  %19 = shl i32 %.tr.i, 3
  %20 = and i32 %19, 24
  %21 = shl nuw i32 255, %20
  %22 = xor i32 %21, -1
  %23 = and i32 %17, %22
  %24 = getelementptr inbounds nuw i8, ptr %3, i64 %.010.i
  %25 = load i8, ptr %24, align 1, !tbaa !32
  %26 = zext i8 %25 to i32
  %27 = shl nuw i32 %26, %20
  %28 = or i32 %23, %27
  %29 = add nuw nsw i64 %.010.i, 1
  %exitcond.not.i = icmp eq i64 %29, 4
  br i1 %exitcond.not.i, label %_Z23write_little_endian_regIjEvPT_mmPKh.exit, label %.preheader, !llvm.loop !67

_Z23write_little_endian_regIjEvPT_mmPKh.exit:     ; preds = %.preheader
  %30 = icmp ult i64 %1, 8192
  br i1 %30, label %31, label %42

31:                                               ; preds = %_Z23write_little_endian_regIjEvPT_mmPKh.exit
  %32 = lshr i64 %1, 2
  %33 = trunc nuw i64 %32 to i32
  %.not.i = icmp samesign ugt i64 %1, 3
  %34 = getelementptr inbounds nuw i8, ptr %0, i64 40
  %35 = load i32, ptr %34, align 8
  %36 = icmp ugt i32 %35, %33
  %or.cond.i = select i1 %.not.i, i1 %36, i1 false
  br i1 %or.cond.i, label %37, label %_ZN6plic_t14priority_writeEmj.exit

37:                                               ; preds = %31
  %38 = trunc i32 %28 to i8
  %39 = and i8 %38, 15
  %40 = getelementptr inbounds nuw i8, ptr %0, i64 52
  %41 = getelementptr inbounds nuw [1024 x i8], ptr %40, i64 0, i64 %32
  store i8 %39, ptr %41, align 1, !tbaa !32
  br label %_ZN6plic_t14priority_writeEmj.exit

42:                                               ; preds = %_Z23write_little_endian_regIjEvPT_mmPKh.exit
  %43 = icmp ult i64 %1, 2097152
  br i1 %43, label %44, label %61

44:                                               ; preds = %42
  %45 = add nuw nsw i64 %1, 549755805696
  %46 = lshr i64 %45, 7
  %47 = and i64 %46, 4294967295
  %48 = getelementptr inbounds nuw i8, ptr %0, i64 16
  %49 = getelementptr inbounds nuw i8, ptr %0, i64 24
  %50 = load ptr, ptr %49, align 8, !tbaa !28
  %51 = load ptr, ptr %48, align 8, !tbaa !34
  %52 = ptrtoint ptr %50 to i64
  %53 = ptrtoint ptr %51 to i64
  %54 = sub i64 %52, %53
  %55 = sdiv exact i64 %54, 1424
  %56 = icmp ult i64 %47, %55
  br i1 %56, label %57, label %_ZN6plic_t14priority_writeEmj.exit

57:                                               ; preds = %44
  %58 = and i64 %1, 127
  %59 = getelementptr inbounds nuw %struct.plic_context_t, ptr %51, i64 %47
  %60 = tail call noundef zeroext i1 @_ZN6plic_t20context_enable_writeEP14plic_context_tmj(ptr noundef nonnull align 8 dereferenceable(1204) %0, ptr noundef nonnull %59, i64 noundef %58, i32 noundef %28)
  br label %_ZN6plic_t14priority_writeEmj.exit

61:                                               ; preds = %42
  %62 = icmp ult i64 %1, 16777216
  br i1 %62, label %63, label %_ZN6plic_t14priority_writeEmj.exit

63:                                               ; preds = %61
  %64 = add nuw nsw i64 %1, 17592183947264
  %65 = lshr i64 %64, 12
  %66 = and i64 %65, 4294967295
  %67 = getelementptr inbounds nuw i8, ptr %0, i64 16
  %68 = getelementptr inbounds nuw i8, ptr %0, i64 24
  %69 = load ptr, ptr %68, align 8, !tbaa !28
  %70 = load ptr, ptr %67, align 8, !tbaa !34
  %71 = ptrtoint ptr %69 to i64
  %72 = ptrtoint ptr %70 to i64
  %73 = sub i64 %71, %72
  %74 = sdiv exact i64 %73, 1424
  %75 = icmp ult i64 %66, %74
  br i1 %75, label %76, label %_ZN6plic_t14priority_writeEmj.exit

76:                                               ; preds = %63
  %77 = and i64 %1, 4095
  %78 = getelementptr inbounds nuw %struct.plic_context_t, ptr %70, i64 %66
  %79 = tail call noundef zeroext i1 @_ZN6plic_t13context_writeEP14plic_context_tmj(ptr noundef nonnull align 8 dereferenceable(1204) %0, ptr noundef nonnull %78, i64 noundef %77, i32 noundef %28)
  br label %_ZN6plic_t14priority_writeEmj.exit

_ZN6plic_t14priority_writeEmj.exit:               ; preds = %37, %31, %61, %57, %44, %76, %63, %4, %5, %10
  %.0 = phi i1 [ false, %5 ], [ %16, %10 ], [ false, %4 ], [ false, %61 ], [ true, %57 ], [ false, %44 ], [ %79, %76 ], [ false, %63 ], [ true, %31 ], [ true, %37 ]
  ret i1 %.0
}